target datalayout = "e-m:e-p270:32:32-p271:32:32-p272:64:64-i64:64-i128:128-f80:128-n8:16:32:64-S128"
target triple = "x86_64-pc-linux-gnu"

%"class.std::__cxx11::basic_string" = type { %"struct.std::__cxx11::basic_string<char>::_Alloc_hider", i64, %union.anon }
%"struct.std::__cxx11::basic_string<char>::_Alloc_hider" = type { ptr }
%union.anon = type { i64, [8 x i8] }
%"struct.json11::(anonymous namespace)::JsonParser" = type { ptr, i64, ptr, i8, i32 }
%"class.std::allocator" = type { i8 }

@.str.13 = private unnamed_addr constant [24 x i8] c"unexpected end of input\00", align 1

; Function Attrs: mustprogress nounwind uwtable
define internal noundef signext i8 @_ZN6json1112_GLOBAL__N_110JsonParser4failIcEET_ONSt7__cxx1112basic_stringIcSt11char_traitsIcESaIcEEES3_(ptr noundef nonnull align 8 dereferenceable(32) %0, ptr noundef nonnull align 8 dereferenceable(32) %1, i8 noundef signext %2) #1 align 2 {
  %4 = alloca ptr, align 8
  %5 = alloca ptr, align 8
  %6 = alloca i8, align 1
  store ptr %0, ptr %4, align 8
  store ptr %1, ptr %5, align 8
  store i8 %2, ptr %6, align 1
  %7 = load ptr, ptr %4, align 8
  %8 = getelementptr inbounds %"struct.json11::(anonymous namespace)::JsonParser", ptr %7, i32 0, i32 3
  %9 = load i8, ptr %8, align 8
  %10 = trunc i8 %9 to i1
  br i1 %10, label %16, label %11

11:                                               ; preds = %3
  %12 = load ptr, ptr %5, align 8
  %13 = getelementptr inbounds %"struct.json11::(anonymous namespace)::JsonParser", ptr %7, i32 0, i32 2
  %14 = load ptr, ptr %13, align 8
  %15 = call noundef nonnull align 8 dereferenceable(32) ptr @_ZNSt7__cxx1112basic_stringIcSt11char_traitsIcESaIcEEaSEOS4_(ptr noundef nonnull align 8 dereferenceable(32) %14, ptr noundef nonnull align 8 dereferenceable(32) %12) #4
  br label %16

16:                                               ; preds = %11, %3
  %17 = getelementptr inbounds %"struct.json11::(anonymous namespace)::JsonParser", ptr %7, i32 0, i32 3
  store i8 1, ptr %17, align 8
  %18 = load i8, ptr %6, align 1
  ret i8 %18
}

; Function Attrs: mustprogress uwtable
define internal noundef signext i8 @_ZN6json1112_GLOBAL__N_110JsonParser14get_next_tokenEv(ptr noundef nonnull align 8 dereferenceable(32) %0) #0 align 2 personality ptr @__gxx_personality_v0 {
  %2 = alloca i8, align 1
  %3 = alloca ptr, align 8
  %4 = alloca %"class.std::__cxx11::basic_string", align 8
  %5 = alloca %"class.std::allocator", align 1
  %6 = alloca ptr, align 8
  %7 = alloca i32, align 4
  store ptr %0, ptr %3, align 8
  %8 = load ptr, ptr %3, align 8
  call void @_ZN6json1112_GLOBAL__N_110JsonParser15consume_garbageEv(ptr noundef nonnull align 8 dereferenceable(32) %8)
  %9 = getelementptr inbounds %"struct.json11::(anonymous namespace)::JsonParser", ptr %8, i32 0, i32 3
  %10 = load i8, ptr %9, align 8
  %11 = trunc i8 %10 to i1
  br i1 %11, label %12, label %13

12:                                               ; preds = %1
  store i8 0, ptr %2, align 1
  br label %41

13:                                               ; preds = %1
  %14 = getelementptr inbounds %"struct.json11::(anonymous namespace)::JsonParser", ptr %8, i32 0, i32 1
  %15 = load i64, ptr %14, align 8
  %16 = getelementptr inbounds %"struct.json11::(anonymous namespace)::JsonParser", ptr %8, i32 0, i32 0
  %17 = load ptr, ptr %16, align 8
  %18 = call noundef i64 @_ZNKSt7__cxx1112basic_stringIcSt11char_traitsIcESaIcEE4sizeEv(ptr noundef nonnull align 8 dereferenceable(32) %17) #4
  %19 = icmp eq i64 %15, %18
  br i1 %19, label %20, label %33

20:                                               ; preds = %13
  call void @_ZNSaIcEC1Ev(ptr noundef nonnull align 1 dereferenceable(1) %5) #4
  invoke void @_ZNSt7__cxx1112basic_stringIcSt11char_traitsIcESaIcEEC1EPKcRKS3_(ptr noundef nonnull align 8 dereferenceable(32) %4, ptr noundef @.str.13, ptr noundef nonnull align 1 dereferenceable(1) %5)
          to label %21 unwind label %24

21:                                               ; preds = %20
  %22 = invoke noundef signext i8 @_ZN6json1112_GLOBAL__N_110JsonParser4failIcEET_ONSt7__cxx1112basic_stringIcSt11char_traitsIcESaIcEEES3_(ptr noundef nonnull align 8 dereferenceable(32) %8, ptr noundef nonnull align 8 dereferenceable(32) %4, i8 noundef signext 0)
          to label %23 unwind label %28

23:                                               ; preds = %21
  store i8 %22, ptr %2, align 1
  call void @_ZNSt7__cxx1112basic_stringIcSt11char_traitsIcESaIcEED1Ev(ptr noundef nonnull align 8 dereferenceable(32) %4) #4
  call void @_ZNSaIcED1Ev(ptr noundef nonnull align 1 dereferenceable(1) %5) #4
  br label %41

24:                                               ; preds = %20
  %25 = landingpad { ptr, i32 }
          cleanup
  %26 = extractvalue { ptr, i32 } %25, 0
  store ptr %26, ptr %6, align 8
  %27 = extractvalue { ptr, i32 } %25, 1
  store i32 %27, ptr %7, align 4
  br label %32

28:                                               ; preds = %21
  %29 = landingpad { ptr, i32 }
          cleanup
  %30 = extractvalue { ptr, i32 } %29, 0
  store ptr %30, ptr %6, align 8
  %31 = extractvalue { ptr, i32 } %29, 1
  store i32 %31, ptr %7, align 4
  call void @_ZNSt7__cxx1112basic_stringIcSt11char_traitsIcESaIcEED1Ev(ptr noundef nonnull align 8 dereferenceable(32) %4) #4
  br label %32

32:                                               ; preds = %28, %24
  call void @_ZNSaIcED1Ev(ptr noundef nonnull align 1 dereferenceable(1) %5) #4
  br label %43

33:                                               ; preds = %13
  %34 = getelementptr inbounds %"struct.json11::(anonymous namespace)::JsonParser", ptr %8, i32 0, i32 0
  %35 = load ptr, ptr %34, align 8
  %36 = getelementptr inbounds %"struct.json11::(anonymous namespace)::JsonParser", ptr %8, i32 0, i32 1
  %37 = load i64, ptr %36, align 8
  %38 = add i64 %37, 1
  store i64 %38, ptr %36, align 8
  %39 = call noundef nonnull align 1 dereferenceable(1) ptr @_ZNKSt7__cxx1112basic_stringIcSt11char_traitsIcESaIcEEixEm(ptr noundef nonnull align 8 dereferenceable(32) %35, i64 noundef %37) #4
  %40 = load i8, ptr %39, align 1
  store i8 %40, ptr %2, align 1
  br label %41

41:                                               ; preds = %33, %23, %12
  %42 = load i8, ptr %2, align 1
  ret i8 %42

43:                                               ; preds = %32
  %44 = load ptr, ptr %6, align 8
  %45 = load i32, ptr %7, align 4
  %46 = insertvalue { ptr, i32 } poison, ptr %44, 0
  %47 = insertvalue { ptr, i32 } %46, i32 %45, 1
  resume { ptr, i32 } %47
}