; Function Attrs: mustprogress uwtable
define internal fastcc noundef signext i8 @_ZN6json1112_GLOBAL__N_110JsonParser14get_next_tokenEv(ptr nocapture noundef nonnull align 8 dereferenceable(32) %0) unnamed_addr #0 align 2 personality ptr @__gxx_personality_v0 {
  %2 = alloca %"class.std::__cxx11::basic_string", align 8
  %3 = alloca %"class.std::allocator", align 1
  tail call fastcc void @_ZN6json1112_GLOBAL__N_110JsonParser15consume_garbageEv(ptr noundef nonnull align 8 dereferenceable(32) %0)
  %4 = getelementptr inbounds i8, ptr %0, i64 24
  %5 = load i8, ptr %4, align 8
  %6 = and i8 %5, 1
  %.not = icmp eq i8 %6, 0
  br i1 %.not, label %7, label %29

7:                                                ; preds = %1
  %8 = getelementptr inbounds i8, ptr %0, i64 8
  %9 = load i64, ptr %8, align 8
  %10 = load ptr, ptr %0, align 8
  %11 = tail call noundef i64 @_ZNKSt7__cxx1112basic_stringIcSt11char_traitsIcESaIcEE4sizeEv(ptr noundef nonnull align 8 dereferenceable(32) %10) #20
  %12 = icmp eq i64 %9, %11
  br i1 %12, label %13, label %23

13:                                               ; preds = %7
  call void @_ZNSaIcEC1Ev(ptr noundef nonnull align 1 dereferenceable(1) %3) #20
  invoke void @_ZNSt7__cxx1112basic_stringIcSt11char_traitsIcESaIcEEC1EPKcRKS3_(ptr noundef nonnull align 8 dereferenceable(32) %2, ptr noundef nonnull @.str.13, ptr noundef nonnull align 1 dereferenceable(1) %3)
          to label %14 unwind label %21

14:                                               ; preds = %13
  %15 = load i8, ptr %4, align 8
  %16 = and i8 %15, 1
  %.not.i = icmp eq i8 %16, 0
  br i1 %.not.i, label %17, label %_ZN6json1112_GLOBAL__N_110JsonParser4failIcEET_ONSt7__cxx1112basic_stringIcSt11char_traitsIcESaIcEEES3_.exit

17:                                               ; preds = %14
  %18 = getelementptr inbounds i8, ptr %0, i64 16
  %19 = load ptr, ptr %18, align 8
  %20 = call noundef nonnull align 8 dereferenceable(32) ptr @_ZNSt7__cxx1112basic_stringIcSt11char_traitsIcESaIcEEaSEOS4_(ptr noundef nonnull align 8 dereferenceable(32) %19, ptr noundef nonnull align 8 dereferenceable(32) %2) #20
  br label %_ZN6json1112_GLOBAL__N_110JsonParser4failIcEET_ONSt7__cxx1112basic_stringIcSt11char_traitsIcESaIcEEES3_.exit

_ZN6json1112_GLOBAL__N_110JsonParser4failIcEET_ONSt7__cxx1112basic_stringIcSt11char_traitsIcESaIcEEES3_.exit: ; preds = %14, %17
  store i8 1, ptr %4, align 8
  call void @_ZNSt7__cxx1112basic_stringIcSt11char_traitsIcESaIcEED1Ev(ptr noundef nonnull align 8 dereferenceable(32) %2) #20
  call void @_ZNSaIcED1Ev(ptr noundef nonnull align 1 dereferenceable(1) %3) #20
  br label %29

21:                                               ; preds = %13
  %22 = landingpad { ptr, i32 }
          cleanup
  call void @_ZNSaIcED1Ev(ptr noundef nonnull align 1 dereferenceable(1) %3) #20
  resume { ptr, i32 } %22

23:                                               ; preds = %7
  %24 = load ptr, ptr %0, align 8
  %25 = load i64, ptr %8, align 8
  %26 = add i64 %25, 1
  store i64 %26, ptr %8, align 8
  %27 = tail call noundef nonnull align 1 dereferenceable(1) ptr @_ZNKSt7__cxx1112basic_stringIcSt11char_traitsIcESaIcEEixEm(ptr noundef nonnull align 8 dereferenceable(32) %24, i64 noundef %25) #20
  %28 = load i8, ptr %27, align 1
  br label %29

29:                                               ; preds = %1, %23, %_ZN6json1112_GLOBAL__N_110JsonParser4failIcEET_ONSt7__cxx1112basic_stringIcSt11char_traitsIcESaIcEEES3_.exit
  %.0 = phi i8 [ 0, %_ZN6json1112_GLOBAL__N_110JsonParser4failIcEET_ONSt7__cxx1112basic_stringIcSt11char_traitsIcESaIcEEES3_.exit ], [ %28, %23 ], [ 0, %1 ]
  ret i8 %.0
}